target datalayout = "e-m:e-p270:32:32-p271:32:32-p272:64:64-i64:64-i128:128-f80:128-n8:16:32:64-S128"
target triple = "x86_64-pc-linux-gnu"

%"struct.TransTableS::winCardType" = type { i32, i32, ptr, ptr, ptr, ptr }
%struct.nodeCardsType = type { i8, i8, i8, i8, [4 x i8] }

; Function Attrs: mustprogress nounwind uwtable
define noundef ptr @_ZN11TransTableS7FindSOPEPKiiPNS_11winCardTypeERb(ptr noundef nonnull align 8 dereferenceable(2396) %0, ptr noundef %1, i32 noundef %2, ptr noundef %3, ptr noundef nonnull align 1 dereferenceable(1) %4) #5 align 2 {
  %6 = alloca ptr, align 8
  %7 = alloca ptr, align 8
  %8 = alloca ptr, align 8
  %9 = alloca i32, align 4
  %10 = alloca ptr, align 8
  %11 = alloca ptr, align 8
  %12 = alloca ptr, align 8
  %13 = alloca i32, align 4
  store ptr %0, ptr %7, align 8
  store ptr %1, ptr %8, align 8
  store i32 %2, ptr %9, align 4
  store ptr %3, ptr %10, align 8
  store ptr %4, ptr %11, align 8
  %14 = load ptr, ptr %10, align 8
  store ptr %14, ptr %12, align 8
  store i32 0, ptr %13, align 4
  br label %15

15:                                               ; preds = %87, %35, %5
  %16 = load ptr, ptr %12, align 8
  %17 = icmp ne ptr %16, null
  br i1 %17, label %18, label %91

18:                                               ; preds = %15
  %19 = load ptr, ptr %12, align 8
  %20 = getelementptr inbounds nuw %"struct.TransTableS::winCardType", ptr %19, i32 0, i32 1
  %21 = load i32, ptr %20, align 4
  %22 = load ptr, ptr %8, align 8
  %23 = load i32, ptr %13, align 4
  %24 = sext i32 %23 to i64
  %25 = getelementptr inbounds i32, ptr %22, i64 %24
  %26 = load i32, ptr %25, align 4
  %27 = and i32 %21, %26
  %28 = load ptr, ptr %12, align 8
  %29 = getelementptr inbounds nuw %"struct.TransTableS::winCardType", ptr %28, i32 0, i32 0
  %30 = load i32, ptr %29, align 8
  %31 = icmp eq i32 %27, %30
  br i1 %31, label %32, label %71

32:                                               ; preds = %18
  %33 = load i32, ptr %13, align 4
  %34 = icmp ne i32 %33, 3
  br i1 %34, label %35, label %41

35:                                               ; preds = %32
  %36 = load ptr, ptr %12, align 8
  %37 = getelementptr inbounds nuw %"struct.TransTableS::winCardType", ptr %36, i32 0, i32 4
  %38 = load ptr, ptr %37, align 8
  store ptr %38, ptr %12, align 8
  %39 = load i32, ptr %13, align 4
  %40 = add nsw i32 %39, 1
  store i32 %40, ptr %13, align 4
  br label %15, !llvm.loop !33

41:                                               ; preds = %32
  %42 = load ptr, ptr %12, align 8
  %43 = getelementptr inbounds nuw %"struct.TransTableS::winCardType", ptr %42, i32 0, i32 2
  %44 = load ptr, ptr %43, align 8
  %45 = getelementptr inbounds nuw %struct.nodeCardsType, ptr %44, i32 0, i32 1
  %46 = load i8, ptr %45, align 1
  %47 = sext i8 %46 to i32
  %48 = load i32, ptr %9, align 4
  %49 = icmp sgt i32 %47, %48
  br i1 %49, label %50, label %55

50:                                               ; preds = %41
  %51 = load ptr, ptr %11, align 8
  store i8 1, ptr %51, align 1
  %52 = load ptr, ptr %12, align 8
  %53 = getelementptr inbounds nuw %"struct.TransTableS::winCardType", ptr %52, i32 0, i32 2
  %54 = load ptr, ptr %53, align 8
  store ptr %54, ptr %6, align 8
  br label %92

55:                                               ; preds = %41
  %56 = load ptr, ptr %12, align 8
  %57 = getelementptr inbounds nuw %"struct.TransTableS::winCardType", ptr %56, i32 0, i32 2
  %58 = load ptr, ptr %57, align 8
  %59 = getelementptr inbounds nuw %struct.nodeCardsType, ptr %58, i32 0, i32 0
  %60 = load i8, ptr %59, align 1
  %61 = sext i8 %60 to i32
  %62 = load i32, ptr %9, align 4
  %63 = icmp sle i32 %61, %62
  br i1 %63, label %64, label %69

64:                                               ; preds = %55
  %65 = load ptr, ptr %11, align 8
  store i8 0, ptr %65, align 1
  %66 = load ptr, ptr %12, align 8
  %67 = getelementptr inbounds nuw %"struct.TransTableS::winCardType", ptr %66, i32 0, i32 2
  %68 = load ptr, ptr %67, align 8
  store ptr %68, ptr %6, align 8
  br label %92

69:                                               ; preds = %55
  br label %70

70:                                               ; preds = %69
  br label %71

71:                                               ; preds = %70, %18
  br label %72

72:                                               ; preds = %86, %71
  %73 = load ptr, ptr %12, align 8
  %74 = getelementptr inbounds nuw %"struct.TransTableS::winCardType", ptr %73, i32 0, i32 5
  %75 = load ptr, ptr %74, align 8
  %76 = icmp eq ptr %75, null
  br i1 %76, label %77, label %87

77:                                               ; preds = %72
  %78 = load ptr, ptr %12, align 8
  %79 = getelementptr inbounds nuw %"struct.TransTableS::winCardType", ptr %78, i32 0, i32 3
  %80 = load ptr, ptr %79, align 8
  store ptr %80, ptr %12, align 8
  %81 = load i32, ptr %13, align 4
  %82 = add nsw i32 %81, -1
  store i32 %82, ptr %13, align 4
  %83 = load ptr, ptr %12, align 8
  %84 = icmp eq ptr %83, null
  br i1 %84, label %85, label %86

85:                                               ; preds = %77
  store ptr null, ptr %6, align 8
  br label %92

86:                                               ; preds = %77
  br label %72, !llvm.loop !34

87:                                               ; preds = %72
  %88 = load ptr, ptr %12, align 8
  %89 = getelementptr inbounds nuw %"struct.TransTableS::winCardType", ptr %88, i32 0, i32 5
  %90 = load ptr, ptr %89, align 8
  store ptr %90, ptr %12, align 8
  br label %15, !llvm.loop !33

91:                                               ; preds = %15
  store ptr null, ptr %6, align 8
  br label %92

92:                                               ; preds = %91, %85, %64, %50
  %93 = load ptr, ptr %6, align 8
  ret ptr %93
}