; Function Attrs: mustprogress nofree norecurse nosync nounwind memory(read, argmem: readwrite, inaccessiblemem: none) uwtable
define noundef ptr @_ZN11TransTableS7FindSOPEPKiiPNS_11winCardTypeERb(ptr nocapture noundef nonnull readnone align 8 dereferenceable(2396) %0, ptr nocapture noundef readonly %1, i32 noundef %2, ptr noundef readonly %3, ptr nocapture noundef nonnull writeonly align 1 dereferenceable(1) %4) local_unnamed_addr #14 align 2 {
  %.not37 = icmp eq ptr %3, null
  br i1 %.not37, label %.loopexit30, label %.lr.ph

.lr.ph:                                           ; preds = %5, %.backedge
  %.039 = phi i32 [ %.0.be, %.backedge ], [ 0, %5 ]
  %.02238 = phi ptr [ %.022.be, %.backedge ], [ %3, %5 ]
  %6 = getelementptr inbounds nuw i8, ptr %.02238, i64 4
  %7 = load i32, ptr %6, align 4
  %8 = sext i32 %.039 to i64
  %9 = getelementptr inbounds i32, ptr %1, i64 %8
  %10 = load i32, ptr %9, align 4
  %11 = and i32 %10, %7
  %12 = load i32, ptr %.02238, align 8
  %13 = icmp eq i32 %11, %12
  br i1 %13, label %14, label %.preheader

14:                                               ; preds = %.lr.ph
  %.not28 = icmp eq i32 %.039, 3
  br i1 %.not28, label %19, label %15

15:                                               ; preds = %14
  %16 = getelementptr inbounds nuw i8, ptr %.02238, i64 24
  %17 = load ptr, ptr %16, align 8
  %18 = add nsw i32 %.039, 1
  br label %.backedge

.backedge:                                        ; preds = %29, %15
  %.022.be = phi ptr [ %17, %15 ], [ %31, %29 ]
  %.0.be = phi i32 [ %18, %15 ], [ %.1, %29 ]
  %.not = icmp eq ptr %.022.be, null
  br i1 %.not, label %.loopexit30, label %.lr.ph, !llvm.loop !33

19:                                               ; preds = %14
  %20 = getelementptr inbounds nuw i8, ptr %.02238, i64 8
  %21 = load ptr, ptr %20, align 8
  %22 = getelementptr inbounds nuw i8, ptr %21, i64 1
  %23 = load i8, ptr %22, align 1
  %24 = sext i8 %23 to i32
  %25 = icmp slt i32 %2, %24
  br i1 %25, label %.loopexit30.sink.split, label %26

26:                                               ; preds = %19
  %27 = load i8, ptr %21, align 1
  %28 = sext i8 %27 to i32
  %.not29 = icmp slt i32 %2, %28
  br i1 %.not29, label %.preheader, label %.loopexit30.sink.split

.preheader:                                       ; preds = %26, %.lr.ph
  br label %29

29:                                               ; preds = %.preheader, %33
  %.123 = phi ptr [ %35, %33 ], [ %.02238, %.preheader ]
  %.1 = phi i32 [ %36, %33 ], [ %.039, %.preheader ]
  %30 = getelementptr inbounds nuw i8, ptr %.123, i64 32
  %31 = load ptr, ptr %30, align 8
  %32 = icmp eq ptr %31, null
  br i1 %32, label %33, label %.backedge, !llvm.loop !33

33:                                               ; preds = %29
  %34 = getelementptr inbounds nuw i8, ptr %.123, i64 16
  %35 = load ptr, ptr %34, align 8
  %36 = add nsw i32 %.1, -1
  %37 = icmp eq ptr %35, null
  br i1 %37, label %.loopexit30, label %29, !llvm.loop !34

.loopexit30.sink.split:                           ; preds = %26, %19
  %.sink52 = phi i8 [ 1, %19 ], [ 0, %26 ]
  %38 = getelementptr inbounds nuw i8, ptr %.02238, i64 8
  store i8 %.sink52, ptr %4, align 1
  %39 = load ptr, ptr %38, align 8
  br label %.loopexit30

.loopexit30:                                      ; preds = %.backedge, %33, %.loopexit30.sink.split, %5
  %.024 = phi ptr [ null, %5 ], [ %39, %.loopexit30.sink.split ], [ null, %33 ], [ null, %.backedge ]
  ret ptr %.024
}